target datalayout = "e-m:e-p270:32:32-p271:32:32-p272:64:64-i64:64-i128:128-f80:128-n8:16:32:64-S128"
target triple = "x86_64-pc-linux-gnu"

%"class.gmx::AbstractAnalysisData" = type { ptr, %"class.std::unique_ptr" }
%"class.std::unique_ptr" = type { %"struct.std::__uniq_ptr_data" }
%"struct.std::__uniq_ptr_data" = type { %"class.std::__uniq_ptr_impl" }
%"class.std::__uniq_ptr_impl" = type { %"class.std::tuple" }
%"class.std::tuple" = type { %"struct.std::_Tuple_impl" }
%"struct.std::_Tuple_impl" = type { %"struct.std::_Head_base.24" }
%"struct.std::_Head_base.24" = type { ptr }
%"class.gmx::AnalysisDataPointSetInfo" = type { i32, i32, i32, i32 }
%"class.std::vector" = type { %"struct.std::_Vector_base" }
%"struct.std::_Vector_base" = type { %"struct.std::_Vector_base<gmx::AnalysisDataValue, std::allocator<gmx::AnalysisDataValue>>::_Vector_impl" }
%"struct.std::_Vector_base<gmx::AnalysisDataValue, std::allocator<gmx::AnalysisDataValue>>::_Vector_impl" = type { %"struct.std::_Vector_base<gmx::AnalysisDataValue, std::allocator<gmx::AnalysisDataValue>>::_Vector_impl_data" }
%"struct.std::_Vector_base<gmx::AnalysisDataValue, std::allocator<gmx::AnalysisDataValue>>::_Vector_impl_data" = type { ptr, ptr, ptr }
%"class.std::vector.25" = type { %"struct.std::_Vector_base.26" }
%"struct.std::_Vector_base.26" = type { %"struct.std::_Vector_base<float, std::allocator<float>>::_Vector_impl" }
%"struct.std::_Vector_base<float, std::allocator<float>>::_Vector_impl" = type { %"struct.std::_Vector_base<float, std::allocator<float>>::_Vector_impl_data" }
%"struct.std::_Vector_base<float, std::allocator<float>>::_Vector_impl_data" = type { ptr, ptr, ptr }
%"class.gmx::AbstractAverageHistogram" = type { %"class.gmx::AbstractAnalysisArrayData.base", [2 x i8], %"class.gmx::AnalysisHistogramSettings" }
%"class.gmx::AbstractAnalysisArrayData.base" = type <{ %"class.gmx::AbstractAnalysisData", i32, %"class.gmx::AnalysisDataPointSetInfo", [4 x i8], %"class.std::vector", %"class.std::vector.25", float, i8, i8 }>
%"class.gmx::AnalysisHistogramSettings" = type <{ float, float, float, float, i32, i8, [3 x i8] }>

; Function Attrs: mustprogress nounwind uwtable
define linkonce_odr noundef float @_ZNK3gmx25AnalysisHistogramSettings8binWidthEv(ptr noundef nonnull align 4 dereferenceable(21) %0) #0 comdat align 2 {
  %2 = alloca ptr, align 8
  store ptr %0, ptr %2, align 8
  %3 = load ptr, ptr %2, align 8
  %4 = getelementptr inbounds %"class.gmx::AnalysisHistogramSettings", ptr %3, i32 0, i32 2
  %5 = load float, ptr %4, align 4
  ret float %5
}

; Function Attrs: mustprogress nounwind uwtable
define linkonce_odr noundef float @_ZNK3gmx25AnalysisHistogramSettings9firstEdgeEv(ptr noundef nonnull align 4 dereferenceable(21) %0) #0 comdat align 2 {
  %2 = alloca ptr, align 8
  store ptr %0, ptr %2, align 8
  %3 = load ptr, ptr %2, align 8
  %4 = getelementptr inbounds %"class.gmx::AnalysisHistogramSettings", ptr %3, i32 0, i32 0
  %5 = load float, ptr %4, align 4
  ret float %5
}

; Function Attrs: mustprogress nounwind uwtable
define linkonce_odr noundef i32 @_ZNK3gmx25AnalysisHistogramSettings8binCountEv(ptr noundef nonnull align 4 dereferenceable(21) %0) #0 comdat align 2 {
  %2 = alloca ptr, align 8
  store ptr %0, ptr %2, align 8
  %3 = load ptr, ptr %2, align 8
  %4 = getelementptr inbounds %"class.gmx::AnalysisHistogramSettings", ptr %3, i32 0, i32 4
  %5 = load i32, ptr %4, align 4
  ret i32 %5
}

; Function Attrs: mustprogress uwtable
define void @_ZN3gmx24AbstractAverageHistogram4initERKNS_25AnalysisHistogramSettingsE(ptr noundef nonnull align 8 dereferenceable(120) %0, ptr noundef nonnull align 4 dereferenceable(21) %1) #2 align 2 {
  %3 = alloca ptr, align 8
  %4 = alloca ptr, align 8
  store ptr %0, ptr %3, align 8
  store ptr %1, ptr %4, align 8
  %5 = load ptr, ptr %3, align 8
  %6 = load ptr, ptr %4, align 8
  %7 = getelementptr inbounds %"class.gmx::AbstractAverageHistogram", ptr %5, i32 0, i32 2
  call void @llvm.memcpy.p0.p0.i64(ptr align 8 %7, ptr align 4 %6, i64 21, i1 false)
  %8 = load ptr, ptr %4, align 8
  %9 = call noundef i32 @_ZNK3gmx25AnalysisHistogramSettings8binCountEv(ptr noundef nonnull align 4 dereferenceable(21) %8)
  call void @_ZN3gmx25AbstractAnalysisArrayData11setRowCountEi(ptr noundef nonnull align 8 dereferenceable(94) %5, i32 noundef %9)
  %10 = load ptr, ptr %4, align 8
  %11 = call noundef float @_ZNK3gmx25AnalysisHistogramSettings9firstEdgeEv(ptr noundef nonnull align 4 dereferenceable(21) %10)
  %12 = fpext float %11 to double
  %13 = load ptr, ptr %4, align 8
  %14 = call noundef float @_ZNK3gmx25AnalysisHistogramSettings8binWidthEv(ptr noundef nonnull align 4 dereferenceable(21) %13)
  %15 = fpext float %14 to double
  %16 = call double @llvm.fmuladd.f64(double 5.000000e-01, double %15, double %12)
  %17 = fptrunc double %16 to float
  %18 = load ptr, ptr %4, align 8
  %19 = call noundef float @_ZNK3gmx25AnalysisHistogramSettings8binWidthEv(ptr noundef nonnull align 4 dereferenceable(21) %18)
  call void @_ZN3gmx25AbstractAnalysisArrayData8setXAxisEff(ptr noundef nonnull align 8 dereferenceable(94) %5, float noundef %17, float noundef %19)
  ret void
}