; Function Attrs: mustprogress uwtable
define void @_ZN3gmx24AbstractAverageHistogram4initERKNS_25AnalysisHistogramSettingsE(ptr noundef nonnull align 8 dereferenceable(120) %0, ptr nocapture noundef nonnull readonly align 4 dereferenceable(21) %1) local_unnamed_addr #3 align 2 {
  %3 = getelementptr inbounds i8, ptr %0, i64 96
  tail call void @llvm.memcpy.p0.p0.i64(ptr noundef nonnull align 8 dereferenceable(21) %3, ptr noundef nonnull align 4 dereferenceable(21) %1, i64 21, i1 false)
  %4 = getelementptr inbounds i8, ptr %1, i64 16
  %5 = load i32, ptr %4, align 4
  tail call void @_ZN3gmx25AbstractAnalysisArrayData11setRowCountEi(ptr noundef nonnull align 8 dereferenceable(94) %0, i32 noundef %5)
  %6 = load float, ptr %1, align 4
  %7 = fpext float %6 to double
  %8 = getelementptr inbounds i8, ptr %1, i64 8
  %9 = load float, ptr %8, align 4
  %10 = fpext float %9 to double
  %11 = tail call double @llvm.fmuladd.f64(double %10, double 5.000000e-01, double %7)
  %12 = fptrunc double %11 to float
  tail call void @_ZN3gmx25AbstractAnalysisArrayData8setXAxisEff(ptr noundef nonnull align 8 dereferenceable(94) %0, float noundef %12, float noundef %9)
  ret void
}